target datalayout = "e-m:e-p270:32:32-p271:32:32-p272:64:64-i64:64-i128:128-f80:128-n8:16:32:64-S128"
target triple = "x86_64-pc-linux-gnu"

%class.QString = type { %struct.QArrayDataPointer }
%struct.QArrayDataPointer = type { ptr, ptr, i64 }
%class.DissectorTablesDialog = type { %class.GeometryStateDialog, ptr, ptr }
%class.GeometryStateDialog = type { %class.QDialog, %class.QString, ptr }
%class.QDialog = type { %class.QWidget }
%class.QWidget = type { %class.QObject, %class.QPaintDevice.base, ptr }
%class.QObject = type { ptr, %class.QScopedPointer }
%class.QScopedPointer = type { ptr }
%class.QPaintDevice.base = type <{ ptr, i16 }>
%class.Ui_DissectorTablesDialog = type { ptr, ptr, ptr, ptr, ptr, ptr }

; Function Attrs: inlinehint mustprogress nounwind null_pointer_is_valid sspstrong uwtable
define linkonce_odr noundef zeroext i1 @_ZNK7QString7isEmptyEv(ptr noundef align 8 dereferenceable_or_null(24) %0) #1 comdat align 2 {
  %2 = alloca ptr, align 8
  store ptr %0, ptr %2, align 8
  %3 = load ptr, ptr %2, align 8
  %4 = getelementptr inbounds nuw %class.QString, ptr %3, i32 0, i32 0
  %5 = getelementptr inbounds nuw %struct.QArrayDataPointer, ptr %4, i32 0, i32 2
  %6 = load i64, ptr %5, align 8
  %7 = icmp eq i64 %6, 0
  ret i1 %7
}

; Function Attrs: mustprogress nounwind null_pointer_is_valid sspstrong uwtable
define linkonce_odr noundef zeroext i1 @_ZneRK7QStringDn(ptr noundef align 8 dereferenceable(24) %0, ptr %1) #8 comdat {
  %3 = alloca ptr, align 8
  %4 = alloca ptr, align 8
  store ptr %0, ptr %3, align 8
  store ptr %1, ptr %4, align 8
  %5 = load ptr, ptr %3, align 8
  %6 = call noundef zeroext i1 @_ZNK7QString7isEmptyEv(ptr noundef align 8 dereferenceable_or_null(24) %5)
  %7 = xor i1 %6, true
  ret i1 %7
}

; Function Attrs: mustprogress null_pointer_is_valid sspstrong uwtable
define void @_ZN21DissectorTablesDialog28on_txtSearchLine_textChangedERK7QString(ptr noundef align 8 dereferenceable_or_null(88) %0, ptr noundef align 8 dereferenceable(24) %1) #0 align 2 {
  %3 = alloca ptr, align 8
  %4 = alloca ptr, align 8
  store ptr %0, ptr %3, align 8
  store ptr %1, ptr %4, align 8
  %5 = load ptr, ptr %3, align 8
  %6 = getelementptr inbounds nuw %class.DissectorTablesDialog, ptr %5, i32 0, i32 2
  %7 = load ptr, ptr %6, align 8
  %8 = load ptr, ptr %4, align 8
  call void @_ZN25DissectorTablesProxyModel9setFilterERK7QString(ptr noundef align 8 dereferenceable_or_null(88) %7, ptr noundef align 8 dereferenceable(24) %8)
  %9 = getelementptr inbounds nuw %class.DissectorTablesDialog, ptr %5, i32 0, i32 1
  %10 = load ptr, ptr %9, align 8
  %11 = getelementptr inbounds nuw %class.Ui_DissectorTablesDialog, ptr %10, i32 0, i32 4
  %12 = load ptr, ptr %11, align 8
  call void @_ZN9QTreeView13expandToDepthEi(ptr noundef align 8 dereferenceable_or_null(40) %12, i32 noundef 0)
  %13 = load ptr, ptr %4, align 8
  %14 = call noundef zeroext i1 @_ZneRK7QStringDn(ptr noundef align 8 dereferenceable(24) %13, ptr null) #23
  br i1 %14, label %15, label %20

15:                                               ; preds = %2
  %16 = getelementptr inbounds nuw %class.DissectorTablesDialog, ptr %5, i32 0, i32 1
  %17 = load ptr, ptr %16, align 8
  %18 = getelementptr inbounds nuw %class.Ui_DissectorTablesDialog, ptr %17, i32 0, i32 4
  %19 = load ptr, ptr %18, align 8
  call void @_ZN9QTreeView9expandAllEv(ptr noundef align 8 dereferenceable_or_null(40) %19)
  br label %25

20:                                               ; preds = %2
  %21 = getelementptr inbounds nuw %class.DissectorTablesDialog, ptr %5, i32 0, i32 1
  %22 = load ptr, ptr %21, align 8
  %23 = getelementptr inbounds nuw %class.Ui_DissectorTablesDialog, ptr %22, i32 0, i32 4
  %24 = load ptr, ptr %23, align 8
  call void @_ZN9QTreeView11collapseAllEv(ptr noundef align 8 dereferenceable_or_null(40) %24)
  br label %25

25:                                               ; preds = %20, %15
  ret void
}