; Function Attrs: mustprogress null_pointer_is_valid sspstrong uwtable
define void @_ZN21DissectorTablesDialog28on_txtSearchLine_textChangedERK7QString(ptr noundef readonly align 8 captures(none) dereferenceable_or_null(88) %0, ptr noundef align 8 dereferenceable(24) %1) local_unnamed_addr #0 align 2 {
  %3 = getelementptr inbounds nuw i8, ptr %0, i64 80
  %4 = load ptr, ptr %3, align 8
  tail call void @_ZN25DissectorTablesProxyModel9setFilterERK7QString(ptr noundef align 8 dereferenceable_or_null(88) %4, ptr noundef align 8 dereferenceable(24) %1)
  %5 = getelementptr inbounds nuw i8, ptr %0, i64 72
  %6 = load ptr, ptr %5, align 8
  %7 = getelementptr inbounds nuw i8, ptr %6, i64 32
  %8 = load ptr, ptr %7, align 8
  tail call void @_ZN9QTreeView13expandToDepthEi(ptr noundef align 8 dereferenceable_or_null(40) %8, i32 noundef 0)
  %9 = getelementptr inbounds nuw i8, ptr %1, i64 16
  %10 = load i64, ptr %9, align 8
  %.not = icmp eq i64 %10, 0
  %11 = load ptr, ptr %5, align 8
  %12 = getelementptr inbounds nuw i8, ptr %11, i64 32
  %13 = load ptr, ptr %12, align 8
  br i1 %.not, label %15, label %14

14:                                               ; preds = %2
  tail call void @_ZN9QTreeView9expandAllEv(ptr noundef align 8 dereferenceable_or_null(40) %13)
  br label %16

15:                                               ; preds = %2
  tail call void @_ZN9QTreeView11collapseAllEv(ptr noundef align 8 dereferenceable_or_null(40) %13)
  br label %16

16:                                               ; preds = %15, %14
  ret void
}